; Function Attrs: nounwind uwtable
define i64 @dt_datetime_gtimespan_add_numbers(i64 noundef %0, ptr noundef readonly byval(%struct.dt_datetime_t) align 8 captures(none) %1, i32 noundef %2) local_unnamed_addr #0 {
  %4 = load ptr, ptr getelementptr inbounds nuw (i8, ptr @darktable, i64 3336), align 8, !tbaa !48
  %5 = tail call ptr @g_date_time_add(ptr noundef %4, i64 noundef %0) #7
  %6 = tail call ptr @dt_datetime_gdatetime_add_numbers(ptr noundef %5, ptr noundef nonnull byval(%struct.dt_datetime_t) align 8 %1, i32 noundef %2)
  %.not.i = icmp eq ptr %6, null
  br i1 %.not.i, label %dt_datetime_gdatetime_to_gtimespan.exit, label %7

7:                                                ; preds = %3
  %8 = load ptr, ptr getelementptr inbounds nuw (i8, ptr @darktable, i64 3336), align 8, !tbaa !48
  %9 = tail call i64 @g_date_time_difference(ptr noundef nonnull %6, ptr noundef %8) #7
  br label %dt_datetime_gdatetime_to_gtimespan.exit

dt_datetime_gdatetime_to_gtimespan.exit:          ; preds = %3, %7
  %.0.i = phi i64 [ %9, %7 ], [ 0, %3 ]
  tail call void @g_date_time_unref(ptr noundef %5) #7
  tail call void @g_date_time_unref(ptr noundef %6) #7
  ret i64 %.0.i
}